; ModuleID = '1/1495.c'
source_filename = "1/1495.c"
target datalayout = "e-m:e-p270:32:32-p271:32:32-p272:64:64-i64:64-f80:128-n8:16:32:64-S128"
target triple = "x86_64-pc-linux-gnu"

@.str = private unnamed_addr constant [3 x i8] c"%d\00", align 1
@.str.1 = private unnamed_addr constant [4 x i8] c"%d\0A\00", align 1

; Function Attrs: noinline nounwind uwtable
define dso_local i32 @function(i32 %0, i32 %1) #0 {
  %3 = alloca i32, align 4
  %4 = alloca i32, align 4
  %5 = alloca i32, align 4
  %6 = alloca i32, align 4
  %7 = alloca i32, align 4
  store i32 %0, i32* %4, align 4
  store i32 %1, i32* %5, align 4
  store i32 1, i32* %6, align 4
  %8 = load i32, i32* %4, align 4
  %9 = load i32, i32* %5, align 4
  %10 = icmp sgt i32 %8, %9
  br i1 %10, label %11, label %12

11:                                               ; preds = %2
  store i32 0, i32* %3, align 4
  br label %38

12:                                               ; preds = %2
  %13 = load i32, i32* %4, align 4
  store i32 %13, i32* %7, align 4
  br label %14

14:                                               ; preds = %33, %12
  %15 = load i32, i32* %7, align 4
  %16 = load i32, i32* %5, align 4
  %17 = icmp slt i32 %15, %16
  br i1 %17, label %18, label %36

18:                                               ; preds = %14
  %19 = load i32, i32* %5, align 4
  %20 = load i32, i32* %7, align 4
  %21 = srem i32 %19, %20
  %22 = icmp eq i32 %21, 0
  br i1 %22, label %23, label %31

23:                                               ; preds = %18
  %24 = load i32, i32* %6, align 4
  %25 = load i32, i32* %7, align 4
  %26 = load i32, i32* %5, align 4
  %27 = load i32, i32* %7, align 4
  %28 = sdiv i32 %26, %27
  %29 = call i32 @function(i32 %25, i32 %28)
  %30 = add nsw i32 %24, %29
  store i32 %30, i32* %6, align 4
  br label %32

31:                                               ; preds = %18
  br label %33

32:                                               ; preds = %23
  br label %33

33:                                               ; preds = %32, %31
  %34 = load i32, i32* %7, align 4
  %35 = add nsw i32 %34, 1
  store i32 %35, i32* %7, align 4
  br label %14

36:                                               ; preds = %14
  %37 = load i32, i32* %6, align 4
  store i32 %37, i32* %3, align 4
  br label %38

38:                                               ; preds = %36, %11
  %39 = load i32, i32* %3, align 4
  ret i32 %39
}

; Function Attrs: noinline nounwind uwtable
define dso_local void @main() #0 {
  %1 = alloca i32, align 4
  %2 = alloca i32, align 4
  %3 = alloca [100 x i32], align 16
  %4 = call i32 (i8*, ...) @__isoc99_scanf(i8* getelementptr inbounds ([3 x i8], [3 x i8]* @.str, i64 0, i64 0), i32* %1)
  store i32 0, i32* %2, align 4
  br label %5

5:                                                ; preds = %15, %0
  %6 = load i32, i32* %2, align 4
  %7 = load i32, i32* %1, align 4
  %8 = sub nsw i32 %7, 1
  %9 = icmp sle i32 %6, %8
  br i1 %9, label %10, label %18

10:                                               ; preds = %5
  %11 = load i32, i32* %2, align 4
  %12 = sext i32 %11 to i64
  %13 = getelementptr inbounds [100 x i32], [100 x i32]* %3, i64 0, i64 %12
  %14 = call i32 (i8*, ...) @__isoc99_scanf(i8* getelementptr inbounds ([3 x i8], [3 x i8]* @.str, i64 0, i64 0), i32* %13)
  br label %15

15:                                               ; preds = %10
  %16 = load i32, i32* %2, align 4
  %17 = add nsw i32 %16, 1
  store i32 %17, i32* %2, align 4
  br label %5

18:                                               ; preds = %5
  store i32 0, i32* %2, align 4
  br label %19

19:                                               ; preds = %31, %18
  %20 = load i32, i32* %2, align 4
  %21 = load i32, i32* %1, align 4
  %22 = sub nsw i32 %21, 1
  %23 = icmp sle i32 %20, %22
  br i1 %23, label %24, label %34

24:                                               ; preds = %19
  %25 = load i32, i32* %2, align 4
  %26 = sext i32 %25 to i64
  %27 = getelementptr inbounds [100 x i32], [100 x i32]* %3, i64 0, i64 %26
  %28 = load i32, i32* %27, align 4
  %29 = call i32 @function(i32 2, i32 %28)
  %30 = call i32 (i8*, ...) @printf(i8* getelementptr inbounds ([4 x i8], [4 x i8]* @.str.1, i64 0, i64 0), i32 %29)
  br label %31

31:                                               ; preds = %24
  %32 = load i32, i32* %2, align 4
  %33 = add nsw i32 %32, 1
  store i32 %33, i32* %2, align 4
  br label %19

34:                                               ; preds = %19
  ret void
}

declare dso_local i32 @__isoc99_scanf(i8*, ...) #1

declare dso_local i32 @printf(i8*, ...) #1


!llvm.module.flags = !{!0}
!llvm.ident = !{!1}

!0 = !{i32 1, !"wchar_size", i32 4}
!1 = !{!"clang version 10.0.0-4ubuntu1 "}
